; Function Attrs: inlinehint mustprogress nounwind uwtable
define internal fastcc void @_ZN7rocksdb12experimental12_GLOBAL__N_132SstQueryFilterConfigsManagerImpl22RangeQueryFilterReader5StateD2Ev(ptr noundef nonnull readonly align 8 captures(none) dereferenceable(64) %0) unnamed_addr #10 align 2 personality ptr @__gxx_personality_v0 {
  %2 = getelementptr inbounds nuw i8, ptr %0, i64 32
  %3 = load ptr, ptr %2, align 8, !tbaa !668
  %.not.i.i.i.i = icmp eq ptr %3, null
  br i1 %.not.i.i.i.i, label %_ZN7rocksdb12experimental20KeySegmentsExtractor6ResultD2Ev.exit, label %4

4:                                                ; preds = %1
  %5 = getelementptr inbounds nuw i8, ptr %0, i64 48
  %6 = load ptr, ptr %5, align 8, !tbaa !679
  %7 = ptrtoint ptr %6 to i64
  %8 = ptrtoint ptr %3 to i64
  %9 = sub i64 %7, %8
  tail call void @_ZdlPvm(ptr noundef nonnull %3, i64 noundef %9) #33
  br label %_ZN7rocksdb12experimental20KeySegmentsExtractor6ResultD2Ev.exit

_ZN7rocksdb12experimental20KeySegmentsExtractor6ResultD2Ev.exit: ; preds = %1, %4
  %10 = load ptr, ptr %0, align 8, !tbaa !668
  %.not.i.i.i.i1 = icmp eq ptr %10, null
  br i1 %.not.i.i.i.i1, label %_ZN7rocksdb12experimental20KeySegmentsExtractor6ResultD2Ev.exit2, label %11

11:                                               ; preds = %_ZN7rocksdb12experimental20KeySegmentsExtractor6ResultD2Ev.exit
  %12 = getelementptr inbounds nuw i8, ptr %0, i64 16
  %13 = load ptr, ptr %12, align 8, !tbaa !679
  %14 = ptrtoint ptr %13 to i64
  %15 = ptrtoint ptr %10 to i64
  %16 = sub i64 %14, %15
  tail call void @_ZdlPvm(ptr noundef nonnull %10, i64 noundef %16) #33
  br label %_ZN7rocksdb12experimental20KeySegmentsExtractor6ResultD2Ev.exit2

_ZN7rocksdb12experimental20KeySegmentsExtractor6ResultD2Ev.exit2: ; preds = %_ZN7rocksdb12experimental20KeySegmentsExtractor6ResultD2Ev.exit, %11
  ret void
}